target datalayout = "e-m:e-p270:32:32-p271:32:32-p272:64:64-i64:64-i128:128-f80:128-n8:16:32:64-S128"
target triple = "x86_64-pc-linux-gnu"

%struct.ZSTDv01_Dctx_s = type { [1025 x i32], [513 x i32], [1025 x i32], ptr, ptr, i64, i32, i32 }

; Function Attrs: nounwind uwtable
define i64 @ZSTDv01_decompress(ptr noundef %0, i64 noundef %1, ptr noundef %2, i64 noundef %3) #0 {
  %5 = alloca ptr, align 8
  %6 = alloca i64, align 8
  %7 = alloca ptr, align 8
  %8 = alloca i64, align 8
  %9 = alloca %struct.ZSTDv01_Dctx_s, align 8
  store ptr %0, ptr %5, align 8, !tbaa !7
  store i64 %1, ptr %6, align 8, !tbaa !3
  store ptr %2, ptr %7, align 8, !tbaa !7
  store i64 %3, ptr %8, align 8, !tbaa !3
  call void @llvm.lifetime.start.p0(i64 10288, ptr %9) #8
  %10 = load ptr, ptr %5, align 8, !tbaa !7
  %11 = getelementptr inbounds nuw %struct.ZSTDv01_Dctx_s, ptr %9, i32 0, i32 4
  store ptr %10, ptr %11, align 8, !tbaa !17
  %12 = load ptr, ptr %5, align 8, !tbaa !7
  %13 = load i64, ptr %6, align 8, !tbaa !3
  %14 = load ptr, ptr %7, align 8, !tbaa !7
  %15 = load i64, ptr %8, align 8, !tbaa !3
  %16 = call i64 @ZSTDv01_decompressDCtx(ptr noundef %9, ptr noundef %12, i64 noundef %13, ptr noundef %14, i64 noundef %15)
  call void @llvm.lifetime.end.p0(i64 10288, ptr %9) #8
  ret i64 %16
}