; Function Attrs: nofree norecurse nosync nounwind memory(readwrite, inaccessiblemem: none) uwtable
define i64 @ZSTDv01_decompress(ptr noundef %0, i64 noundef %1, ptr noundef %2, i64 noundef %3) local_unnamed_addr #1 {
  %5 = alloca %struct.ZSTDv01_Dctx_s, align 8
  call void @llvm.lifetime.start.p0(i64 10288, ptr nonnull %5) #16
  %6 = getelementptr inbounds nuw i8, ptr %5, i64 10264
  store ptr %0, ptr %6, align 8, !tbaa !32
  %7 = call i64 @ZSTDv01_decompressDCtx(ptr noundef nonnull %5, ptr noundef %0, i64 noundef %1, ptr noundef %2, i64 noundef %3)
  call void @llvm.lifetime.end.p0(i64 10288, ptr nonnull %5) #16
  ret i64 %7
}